; Function Attrs: nounwind uwtable
define ptr @l_Array_mapMUnsafe_map___at_Lean_Compiler_FFI_getInternalCFlags___spec__1(ptr noundef %0, i64 noundef %1, i64 noundef %2, ptr noundef %3) local_unnamed_addr #0 {
  %.not44 = icmp ult i64 %2, %1
  br i1 %.not44, label %.lr.ph, label %._crit_edge

.lr.ph:                                           ; preds = %4, %56
  %.02146 = phi i64 [ %40, %56 ], [ %2, %4 ]
  %.02345 = phi ptr [ %.0.i.i32, %56 ], [ %3, %4 ]
  %5 = getelementptr inbounds nuw i8, ptr %.02345, i64 24
  %6 = getelementptr inbounds nuw [0 x ptr], ptr %5, i64 0, i64 %.02146
  %7 = load ptr, ptr %6, align 8, !tbaa !4
  %8 = ptrtoint ptr %7 to i64
  %9 = and i64 %8, 1
  %.not.i26 = icmp eq i64 %9, 0
  br i1 %.not.i26, label %10, label %lean_array_uget.exit

10:                                               ; preds = %.lr.ph
  %.val.i.i = load i32, ptr %7, align 4, !tbaa !8
  %11 = icmp sgt i32 %.val.i.i, 0
  br i1 %11, label %12, label %14, !prof !11

12:                                               ; preds = %10
  %13 = add nuw i32 %.val.i.i, 1
  store i32 %13, ptr %7, align 4, !tbaa !8
  br label %lean_array_uget.exit

14:                                               ; preds = %10
  %.not.i.i = icmp eq i32 %.val.i.i, 0
  br i1 %.not.i.i, label %lean_array_uget.exit, label %15

15:                                               ; preds = %14
  tail call void @lean_inc_ref_cold(ptr noundef nonnull %7) #3
  br label %lean_array_uget.exit

lean_array_uget.exit:                             ; preds = %.lr.ph, %12, %14, %15
  %.val.i.i27 = load i32, ptr %.02345, align 4, !tbaa !8
  %16 = icmp eq i32 %.val.i.i27, 1
  br i1 %16, label %lean_ensure_exclusive_array.exit.i, label %17

17:                                               ; preds = %lean_array_uget.exit
  %18 = tail call ptr @lean_copy_expand_array(ptr noundef nonnull %.02345, i1 noundef zeroext false) #3
  br label %lean_ensure_exclusive_array.exit.i

lean_ensure_exclusive_array.exit.i:               ; preds = %17, %lean_array_uget.exit
  %.0.i.i = phi ptr [ %18, %17 ], [ %.02345, %lean_array_uget.exit ]
  %19 = getelementptr inbounds nuw i8, ptr %.0.i.i, i64 24
  %20 = getelementptr inbounds nuw ptr, ptr %19, i64 %.02146
  %21 = load ptr, ptr %20, align 8, !tbaa !4
  %22 = ptrtoint ptr %21 to i64
  %23 = and i64 %22, 1
  %.not.i28 = icmp eq i64 %23, 0
  br i1 %.not.i28, label %24, label %lean_array_uset.exit

24:                                               ; preds = %lean_ensure_exclusive_array.exit.i
  %25 = load i32, ptr %21, align 4, !tbaa !8
  %26 = icmp sgt i32 %25, 1
  br i1 %26, label %27, label %29, !prof !11

27:                                               ; preds = %24
  %28 = add nsw i32 %25, -1
  store i32 %28, ptr %21, align 4, !tbaa !8
  br label %lean_array_uset.exit

29:                                               ; preds = %24
  %.not.i.i29 = icmp eq i32 %25, 0
  br i1 %.not.i.i29, label %lean_array_uset.exit, label %30

30:                                               ; preds = %29
  tail call void @lean_dec_ref_cold(ptr noundef nonnull %21) #3
  br label %lean_array_uset.exit

lean_array_uset.exit:                             ; preds = %lean_ensure_exclusive_array.exit.i, %27, %29, %30
  store ptr inttoptr (i64 1 to ptr), ptr %20, align 8, !tbaa !4
  %31 = load ptr, ptr @l_Array_mapMUnsafe_map___at_Lean_Compiler_FFI_getInternalCFlags___spec__1___closed__1, align 8, !tbaa !4
  %32 = tail call ptr @l_String_replace(ptr noundef %7, ptr noundef %31, ptr noundef %0) #3
  br i1 %.not.i26, label %33, label %lean_dec.exit

33:                                               ; preds = %lean_array_uset.exit
  %34 = load i32, ptr %7, align 4, !tbaa !8
  %35 = icmp sgt i32 %34, 1
  br i1 %35, label %36, label %38, !prof !11

36:                                               ; preds = %33
  %37 = add nsw i32 %34, -1
  store i32 %37, ptr %7, align 4, !tbaa !8
  br label %lean_dec.exit

38:                                               ; preds = %33
  %.not.i = icmp eq i32 %34, 0
  br i1 %.not.i, label %lean_dec.exit, label %39

39:                                               ; preds = %38
  tail call void @lean_dec_ref_cold(ptr noundef nonnull %7) #3
  br label %lean_dec.exit

lean_dec.exit:                                    ; preds = %39, %38, %36, %lean_array_uset.exit
  %40 = add nuw i64 %.02146, 1
  %.val.i.i30 = load i32, ptr %.0.i.i, align 4, !tbaa !8
  %41 = icmp eq i32 %.val.i.i30, 1
  br i1 %41, label %lean_ensure_exclusive_array.exit.i31, label %42

42:                                               ; preds = %lean_dec.exit
  %43 = tail call ptr @lean_copy_expand_array(ptr noundef nonnull %.0.i.i, i1 noundef zeroext false) #3
  br label %lean_ensure_exclusive_array.exit.i31

lean_ensure_exclusive_array.exit.i31:             ; preds = %42, %lean_dec.exit
  %.0.i.i32 = phi ptr [ %43, %42 ], [ %.0.i.i, %lean_dec.exit ]
  %44 = getelementptr inbounds nuw i8, ptr %.0.i.i32, i64 24
  %45 = getelementptr inbounds nuw ptr, ptr %44, i64 %.02146
  %46 = load ptr, ptr %45, align 8, !tbaa !4
  %47 = ptrtoint ptr %46 to i64
  %48 = and i64 %47, 1
  %.not.i33 = icmp eq i64 %48, 0
  br i1 %.not.i33, label %49, label %56

49:                                               ; preds = %lean_ensure_exclusive_array.exit.i31
  %50 = load i32, ptr %46, align 4, !tbaa !8
  %51 = icmp sgt i32 %50, 1
  br i1 %51, label %52, label %54, !prof !11

52:                                               ; preds = %49
  %53 = add nsw i32 %50, -1
  store i32 %53, ptr %46, align 4, !tbaa !8
  br label %56

54:                                               ; preds = %49
  %.not.i.i34 = icmp eq i32 %50, 0
  br i1 %.not.i.i34, label %56, label %55

55:                                               ; preds = %54
  tail call void @lean_dec_ref_cold(ptr noundef nonnull %46) #3
  br label %56

56:                                               ; preds = %55, %54, %52, %lean_ensure_exclusive_array.exit.i31
  store ptr %32, ptr %45, align 8, !tbaa !4
  %exitcond.not = icmp eq i64 %40, %1
  br i1 %exitcond.not, label %._crit_edge, label %.lr.ph

._crit_edge:                                      ; preds = %56, %4
  %.023.lcssa = phi ptr [ %3, %4 ], [ %.0.i.i32, %56 ]
  ret ptr %.023.lcssa
}